{
   <insert_a_suppression_name_here>
   Memcheck:Cond
   fun:_ZNK3re210SparseSetTIvE8containsEi
   fun:_ZN3re210SparseSetTIvE14InsertInternalEbi
   fun:_ZN3re210SparseSetTIvE6insertEi
   fun:_ZN3re2L10AddToQueueEPNS_10SparseSetTIvEEi
   fun:_ZN3re24Prog8OptimizeEv
   fun:_ZN3re28Compiler6FinishEPNS_6RegexpE
   fun:_ZN3re28Compiler7CompileEPNS_6RegexpEbl
   fun:_ZN3re26Regexp13CompileToProgEl
   fun:_ZN3re23RE24InitERKNS_11StringPieceERKNS0_7OptionsE
   fun:_ZN3re23RE2C1ERKNS_11StringPieceERKNS0_7OptionsE
   fun:_ZSt11make_uniqueIN3re23RE2EJRKNSt7__cxx1112basic_stringIcSt11char_traitsIcESaIcEEERNS1_7OptionsEEENSt9_MakeUniqIT_E15__single_objectEDpOT0_
   fun:_ZN5ddwaf14operation11regex_matchC1ERKNSt7__cxx1112basic_stringIcSt11char_traitsIcESaIcEEEmb
}
{
   <insert_a_suppression_name_here>
   Memcheck:Cond
   fun:_ZNK3re210SparseSetTIvE8containsEi
   fun:_ZN3re210SparseSetTIvE12create_indexEi
   fun:_ZN3re210SparseSetTIvE14InsertInternalEbi
   fun:_ZN3re210SparseSetTIvE6insertEi
   fun:_ZN3re2L10AddToQueueEPNS_10SparseSetTIvEEi
   fun:_ZN3re24Prog8OptimizeEv
   fun:_ZN3re28Compiler6FinishEPNS_6RegexpE
   fun:_ZN3re28Compiler7CompileEPNS_6RegexpEbl
   fun:_ZN3re26Regexp13CompileToProgEl
   fun:_ZN3re23RE24InitERKNS_11StringPieceERKNS0_7OptionsE
   fun:_ZN3re23RE2C1ERKNS_11StringPieceERKNS0_7OptionsE
   fun:_ZSt11make_uniqueIN3re23RE2EJRKNSt7__cxx1112basic_stringIcSt11char_traitsIcESaIcEEERNS1_7OptionsEEENSt9_MakeUniqIT_E15__single_objectEDpOT0_
}
{
   <insert_a_suppression_name_here>
   Memcheck:Value8
   fun:_ZNK3re210SparseSetTIvE8containsEi
   fun:_ZN3re210SparseSetTIvE14InsertInternalEbi
   fun:_ZN3re210SparseSetTIvE6insertEi
   fun:_ZN3re2L10AddToQueueEPNS_10SparseSetTIvEEi
   fun:_ZN3re24Prog8OptimizeEv
   fun:_ZN3re28Compiler6FinishEPNS_6RegexpE
   fun:_ZN3re28Compiler7CompileEPNS_6RegexpEbl
   fun:_ZN3re26Regexp13CompileToProgEl
   fun:_ZN3re23RE24InitERKNS_11StringPieceERKNS0_7OptionsE
   fun:_ZN3re23RE2C1ERKNS_11StringPieceERKNS0_7OptionsE
   fun:_ZSt11make_uniqueIN3re23RE2EJRKNSt7__cxx1112basic_stringIcSt11char_traitsIcESaIcEEERNS1_7OptionsEEENSt9_MakeUniqIT_E15__single_objectEDpOT0_
   fun:_ZN5ddwaf14operation11regex_matchC1ERKNSt7__cxx1112basic_stringIcSt11char_traitsIcESaIcEEEmb
}
{
   <insert_a_suppression_name_here>
   Memcheck:Value8
   fun:_ZNK3re210SparseSetTIvE8containsEi
   fun:_ZN3re210SparseSetTIvE12create_indexEi
   fun:_ZN3re210SparseSetTIvE14InsertInternalEbi
   fun:_ZN3re210SparseSetTIvE6insertEi
   fun:_ZN3re2L10AddToQueueEPNS_10SparseSetTIvEEi
   fun:_ZN3re24Prog8OptimizeEv
   fun:_ZN3re28Compiler6FinishEPNS_6RegexpE
   fun:_ZN3re28Compiler7CompileEPNS_6RegexpEbl
   fun:_ZN3re26Regexp13CompileToProgEl
   fun:_ZN3re23RE24InitERKNS_11StringPieceERKNS0_7OptionsE
   fun:_ZN3re23RE2C1ERKNS_11StringPieceERKNS0_7OptionsE
   fun:_ZSt11make_uniqueIN3re23RE2EJRKNSt7__cxx1112basic_stringIcSt11char_traitsIcESaIcEEERNS1_7OptionsEEENSt9_MakeUniqIT_E15__single_objectEDpOT0_
}
{
   <insert_a_suppression_name_here>
   Memcheck:Cond
   fun:_ZNK3re211SparseArrayIiE9has_indexEi
   fun:_ZN3re211SparseArrayIiE11SetInternalEbiRKi
   fun:_ZN3re211SparseArrayIiE7set_newEiRKi
   fun:_ZN3re24Prog14MarkSuccessorsEPNS_11SparseArrayIiEES3_PSt6vectorIS4_IiSaIiEESaIS6_EEPNS_10SparseSetTIvEEPS6_
   fun:_ZN3re24Prog7FlattenEv
   fun:_ZN3re28Compiler6FinishEPNS_6RegexpE
   fun:_ZN3re28Compiler7CompileEPNS_6RegexpEbl
   fun:_ZN3re26Regexp13CompileToProgEl
   fun:_ZN3re23RE24InitERKNS_11StringPieceERKNS0_7OptionsE
   fun:_ZN3re23RE2C1ERKNS_11StringPieceERKNS0_7OptionsE
   fun:_ZSt11make_uniqueIN3re23RE2EJRKNSt7__cxx1112basic_stringIcSt11char_traitsIcESaIcEEERNS1_7OptionsEEENSt9_MakeUniqIT_E15__single_objectEDpOT0_
   fun:_ZN5ddwaf14operation11regex_matchC1ERKNSt7__cxx1112basic_stringIcSt11char_traitsIcESaIcEEEmb
}
{
   <insert_a_suppression_name_here>
   Memcheck:Cond
   fun:_ZNK3re211SparseArrayIiE9has_indexEi
   fun:_ZN3re211SparseArrayIiE12create_indexEi
   fun:_ZN3re211SparseArrayIiE11SetInternalEbiRKi
   fun:_ZN3re211SparseArrayIiE7set_newEiRKi
   fun:_ZN3re24Prog14MarkSuccessorsEPNS_11SparseArrayIiEES3_PSt6vectorIS4_IiSaIiEESaIS6_EEPNS_10SparseSetTIvEEPS6_
   fun:_ZN3re24Prog7FlattenEv
   fun:_ZN3re28Compiler6FinishEPNS_6RegexpE
   fun:_ZN3re28Compiler7CompileEPNS_6RegexpEbl
   fun:_ZN3re26Regexp13CompileToProgEl
   fun:_ZN3re23RE24InitERKNS_11StringPieceERKNS0_7OptionsE
   fun:_ZN3re23RE2C1ERKNS_11StringPieceERKNS0_7OptionsE
   fun:_ZSt11make_uniqueIN3re23RE2EJRKNSt7__cxx1112basic_stringIcSt11char_traitsIcESaIcEEERNS1_7OptionsEEENSt9_MakeUniqIT_E15__single_objectEDpOT0_
}
{
   <insert_a_suppression_name_here>
   Memcheck:Cond
   fun:_ZNK3re211SparseArrayIiE9has_indexEi
   fun:_ZN3re24Prog14MarkSuccessorsEPNS_11SparseArrayIiEES3_PSt6vectorIS4_IiSaIiEESaIS6_EEPNS_10SparseSetTIvEEPS6_
   fun:_ZN3re24Prog7FlattenEv
   fun:_ZN3re28Compiler6FinishEPNS_6RegexpE
   fun:_ZN3re28Compiler7CompileEPNS_6RegexpEbl
   fun:_ZN3re26Regexp13CompileToProgEl
   fun:_ZN3re23RE24InitERKNS_11StringPieceERKNS0_7OptionsE
   fun:_ZN3re23RE2C1ERKNS_11StringPieceERKNS0_7OptionsE
   fun:_ZSt11make_uniqueIN3re23RE2EJRKNSt7__cxx1112basic_stringIcSt11char_traitsIcESaIcEEERNS1_7OptionsEEENSt9_MakeUniqIT_E15__single_objectEDpOT0_
   fun:_ZN5ddwaf14operation11regex_matchC1ERKNSt7__cxx1112basic_stringIcSt11char_traitsIcESaIcEEEmb
   fun:_ZSt11make_uniqueIN5ddwaf14operation11regex_matchEJRNSt7__cxx1112basic_stringIcSt11char_traitsIcESaIcEEERiRbEENSt9_MakeUniqIT_E15__single_objectEDpOT0_
   fun:_ZN5ddwaf6parser2v212_GLOBAL__N_114parseConditionERSt13unordered_mapISt17basic_string_viewIcSt11char_traitsIcEENS_9parameterESt4hashIS7_ESt8equal_toIS7_ESaISt4pairIKS7_S8_EEERNS_16manifest_builderENS_9condition11data_sourceERSt6vectorI15PW_TRANSFORM_IDSaISO_EERNS_6configE
}
{
   <insert_a_suppression_name_here>
   Memcheck:Value8
   fun:_ZNK3re211SparseArrayIiE9has_indexEi
   fun:_ZN3re24Prog14MarkSuccessorsEPNS_11SparseArrayIiEES3_PSt6vectorIS4_IiSaIiEESaIS6_EEPNS_10SparseSetTIvEEPS6_
   fun:_ZN3re24Prog7FlattenEv
   fun:_ZN3re28Compiler6FinishEPNS_6RegexpE
   fun:_ZN3re28Compiler7CompileEPNS_6RegexpEbl
   fun:_ZN3re26Regexp13CompileToProgEl
   fun:_ZN3re23RE24InitERKNS_11StringPieceERKNS0_7OptionsE
   fun:_ZN3re23RE2C1ERKNS_11StringPieceERKNS0_7OptionsE
   fun:_ZSt11make_uniqueIN3re23RE2EJRKNSt7__cxx1112basic_stringIcSt11char_traitsIcESaIcEEERNS1_7OptionsEEENSt9_MakeUniqIT_E15__single_objectEDpOT0_
   fun:_ZN5ddwaf14operation11regex_matchC1ERKNSt7__cxx1112basic_stringIcSt11char_traitsIcESaIcEEEmb
   fun:_ZSt11make_uniqueIN5ddwaf14operation11regex_matchEJRNSt7__cxx1112basic_stringIcSt11char_traitsIcESaIcEEERiRbEENSt9_MakeUniqIT_E15__single_objectEDpOT0_
   fun:_ZN5ddwaf6parser2v212_GLOBAL__N_114parseConditionERSt13unordered_mapISt17basic_string_viewIcSt11char_traitsIcEENS_9parameterESt4hashIS7_ESt8equal_toIS7_ESaISt4pairIKS7_S8_EEERNS_16manifest_builderENS_9condition11data_sourceERSt6vectorI15PW_TRANSFORM_IDSaISO_EERNS_6configE
}
{
   <insert_a_suppression_name_here>
   Memcheck:Value8
   fun:_ZNK3re211SparseArrayIiE9has_indexEi
   fun:_ZN3re211SparseArrayIiE11SetInternalEbiRKi
   fun:_ZN3re211SparseArrayIiE7set_newEiRKi
   fun:_ZN3re24Prog14MarkSuccessorsEPNS_11SparseArrayIiEES3_PSt6vectorIS4_IiSaIiEESaIS6_EEPNS_10SparseSetTIvEEPS6_
   fun:_ZN3re24Prog7FlattenEv
   fun:_ZN3re28Compiler6FinishEPNS_6RegexpE
   fun:_ZN3re28Compiler7CompileEPNS_6RegexpEbl
   fun:_ZN3re26Regexp13CompileToProgEl
   fun:_ZN3re23RE24InitERKNS_11StringPieceERKNS0_7OptionsE
   fun:_ZN3re23RE2C1ERKNS_11StringPieceERKNS0_7OptionsE
   fun:_ZSt11make_uniqueIN3re23RE2EJRKNSt7__cxx1112basic_stringIcSt11char_traitsIcESaIcEEERNS1_7OptionsEEENSt9_MakeUniqIT_E15__single_objectEDpOT0_
   fun:_ZN5ddwaf14operation11regex_matchC1ERKNSt7__cxx1112basic_stringIcSt11char_traitsIcESaIcEEEmb
}
{
   <insert_a_suppression_name_here>
   Memcheck:Value8
   fun:_ZNK3re211SparseArrayIiE9has_indexEi
   fun:_ZN3re211SparseArrayIiE12create_indexEi
   fun:_ZN3re211SparseArrayIiE11SetInternalEbiRKi
   fun:_ZN3re211SparseArrayIiE7set_newEiRKi
   fun:_ZN3re24Prog14MarkSuccessorsEPNS_11SparseArrayIiEES3_PSt6vectorIS4_IiSaIiEESaIS6_EEPNS_10SparseSetTIvEEPS6_
   fun:_ZN3re24Prog7FlattenEv
   fun:_ZN3re28Compiler6FinishEPNS_6RegexpE
   fun:_ZN3re28Compiler7CompileEPNS_6RegexpEbl
   fun:_ZN3re26Regexp13CompileToProgEl
   fun:_ZN3re23RE24InitERKNS_11StringPieceERKNS0_7OptionsE
   fun:_ZN3re23RE2C1ERKNS_11StringPieceERKNS0_7OptionsE
   fun:_ZSt11make_uniqueIN3re23RE2EJRKNSt7__cxx1112basic_stringIcSt11char_traitsIcESaIcEEERNS1_7OptionsEEENSt9_MakeUniqIT_E15__single_objectEDpOT0_
}
{
   <insert_a_suppression_name_here>
   Memcheck:Cond
   fun:_ZNK3re210SparseSetTIvE8containsEi
   fun:_ZN3re24Prog14MarkSuccessorsEPNS_11SparseArrayIiEES3_PSt6vectorIS4_IiSaIiEESaIS6_EEPNS_10SparseSetTIvEEPS6_
   fun:_ZN3re24Prog7FlattenEv
   fun:_ZN3re28Compiler6FinishEPNS_6RegexpE
   fun:_ZN3re28Compiler7CompileEPNS_6RegexpEbl
   fun:_ZN3re26Regexp13CompileToProgEl
   fun:_ZN3re23RE24InitERKNS_11StringPieceERKNS0_7OptionsE
   fun:_ZN3re23RE2C1ERKNS_11StringPieceERKNS0_7OptionsE
   fun:_ZSt11make_uniqueIN3re23RE2EJRKNSt7__cxx1112basic_stringIcSt11char_traitsIcESaIcEEERNS1_7OptionsEEENSt9_MakeUniqIT_E15__single_objectEDpOT0_
   fun:_ZN5ddwaf14operation11regex_matchC1ERKNSt7__cxx1112basic_stringIcSt11char_traitsIcESaIcEEEmb
   fun:_ZSt11make_uniqueIN5ddwaf14operation11regex_matchEJRNSt7__cxx1112basic_stringIcSt11char_traitsIcESaIcEEERiRbEENSt9_MakeUniqIT_E15__single_objectEDpOT0_
   fun:_ZN5ddwaf6parser2v212_GLOBAL__N_114parseConditionERSt13unordered_mapISt17basic_string_viewIcSt11char_traitsIcEENS_9parameterESt4hashIS7_ESt8equal_toIS7_ESaISt4pairIKS7_S8_EEERNS_16manifest_builderENS_9condition11data_sourceERSt6vectorI15PW_TRANSFORM_IDSaISO_EERNS_6configE
}
{
   <insert_a_suppression_name_here>
   Memcheck:Cond
   fun:_ZNK3re210SparseSetTIvE8containsEi
   fun:_ZN3re210SparseSetTIvE14InsertInternalEbi
   fun:_ZN3re210SparseSetTIvE10insert_newEi
   fun:_ZN3re24Prog14MarkSuccessorsEPNS_11SparseArrayIiEES3_PSt6vectorIS4_IiSaIiEESaIS6_EEPNS_10SparseSetTIvEEPS6_
   fun:_ZN3re24Prog7FlattenEv
   fun:_ZN3re28Compiler6FinishEPNS_6RegexpE
   fun:_ZN3re28Compiler7CompileEPNS_6RegexpEbl
   fun:_ZN3re26Regexp13CompileToProgEl
   fun:_ZN3re23RE24InitERKNS_11StringPieceERKNS0_7OptionsE
   fun:_ZN3re23RE2C1ERKNS_11StringPieceERKNS0_7OptionsE
   fun:_ZSt11make_uniqueIN3re23RE2EJRKNSt7__cxx1112basic_stringIcSt11char_traitsIcESaIcEEERNS1_7OptionsEEENSt9_MakeUniqIT_E15__single_objectEDpOT0_
   fun:_ZN5ddwaf14operation11regex_matchC1ERKNSt7__cxx1112basic_stringIcSt11char_traitsIcESaIcEEEmb
}
{
   <insert_a_suppression_name_here>
   Memcheck:Cond
   fun:_ZNK3re210SparseSetTIvE8containsEi
   fun:_ZN3re210SparseSetTIvE12create_indexEi
   fun:_ZN3re210SparseSetTIvE14InsertInternalEbi
   fun:_ZN3re210SparseSetTIvE10insert_newEi
   fun:_ZN3re24Prog14MarkSuccessorsEPNS_11SparseArrayIiEES3_PSt6vectorIS4_IiSaIiEESaIS6_EEPNS_10SparseSetTIvEEPS6_
   fun:_ZN3re24Prog7FlattenEv
   fun:_ZN3re28Compiler6FinishEPNS_6RegexpE
   fun:_ZN3re28Compiler7CompileEPNS_6RegexpEbl
   fun:_ZN3re26Regexp13CompileToProgEl
   fun:_ZN3re23RE24InitERKNS_11StringPieceERKNS0_7OptionsE
   fun:_ZN3re23RE2C1ERKNS_11StringPieceERKNS0_7OptionsE
   fun:_ZSt11make_uniqueIN3re23RE2EJRKNSt7__cxx1112basic_stringIcSt11char_traitsIcESaIcEEERNS1_7OptionsEEENSt9_MakeUniqIT_E15__single_objectEDpOT0_
}
{
   <insert_a_suppression_name_here>
   Memcheck:Value8
   fun:_ZNK3re210SparseSetTIvE8containsEi
   fun:_ZN3re24Prog14MarkSuccessorsEPNS_11SparseArrayIiEES3_PSt6vectorIS4_IiSaIiEESaIS6_EEPNS_10SparseSetTIvEEPS6_
   fun:_ZN3re24Prog7FlattenEv
   fun:_ZN3re28Compiler6FinishEPNS_6RegexpE
   fun:_ZN3re28Compiler7CompileEPNS_6RegexpEbl
   fun:_ZN3re26Regexp13CompileToProgEl
   fun:_ZN3re23RE24InitERKNS_11StringPieceERKNS0_7OptionsE
   fun:_ZN3re23RE2C1ERKNS_11StringPieceERKNS0_7OptionsE
   fun:_ZSt11make_uniqueIN3re23RE2EJRKNSt7__cxx1112basic_stringIcSt11char_traitsIcESaIcEEERNS1_7OptionsEEENSt9_MakeUniqIT_E15__single_objectEDpOT0_
   fun:_ZN5ddwaf14operation11regex_matchC1ERKNSt7__cxx1112basic_stringIcSt11char_traitsIcESaIcEEEmb
   fun:_ZSt11make_uniqueIN5ddwaf14operation11regex_matchEJRNSt7__cxx1112basic_stringIcSt11char_traitsIcESaIcEEERiRbEENSt9_MakeUniqIT_E15__single_objectEDpOT0_
   fun:_ZN5ddwaf6parser2v212_GLOBAL__N_114parseConditionERSt13unordered_mapISt17basic_string_viewIcSt11char_traitsIcEENS_9parameterESt4hashIS7_ESt8equal_toIS7_ESaISt4pairIKS7_S8_EEERNS_16manifest_builderENS_9condition11data_sourceERSt6vectorI15PW_TRANSFORM_IDSaISO_EERNS_6configE
}
{
   <insert_a_suppression_name_here>
   Memcheck:Value8
   fun:_ZNK3re210SparseSetTIvE8containsEi
   fun:_ZN3re210SparseSetTIvE14InsertInternalEbi
   fun:_ZN3re210SparseSetTIvE10insert_newEi
   fun:_ZN3re24Prog14MarkSuccessorsEPNS_11SparseArrayIiEES3_PSt6vectorIS4_IiSaIiEESaIS6_EEPNS_10SparseSetTIvEEPS6_
   fun:_ZN3re24Prog7FlattenEv
   fun:_ZN3re28Compiler6FinishEPNS_6RegexpE
   fun:_ZN3re28Compiler7CompileEPNS_6RegexpEbl
   fun:_ZN3re26Regexp13CompileToProgEl
   fun:_ZN3re23RE24InitERKNS_11StringPieceERKNS0_7OptionsE
   fun:_ZN3re23RE2C1ERKNS_11StringPieceERKNS0_7OptionsE
   fun:_ZSt11make_uniqueIN3re23RE2EJRKNSt7__cxx1112basic_stringIcSt11char_traitsIcESaIcEEERNS1_7OptionsEEENSt9_MakeUniqIT_E15__single_objectEDpOT0_
   fun:_ZN5ddwaf14operation11regex_matchC1ERKNSt7__cxx1112basic_stringIcSt11char_traitsIcESaIcEEEmb
}
{
   <insert_a_suppression_name_here>
   Memcheck:Value8
   fun:_ZNK3re210SparseSetTIvE8containsEi
   fun:_ZN3re210SparseSetTIvE12create_indexEi
   fun:_ZN3re210SparseSetTIvE14InsertInternalEbi
   fun:_ZN3re210SparseSetTIvE10insert_newEi
   fun:_ZN3re24Prog14MarkSuccessorsEPNS_11SparseArrayIiEES3_PSt6vectorIS4_IiSaIiEESaIS6_EEPNS_10SparseSetTIvEEPS6_
   fun:_ZN3re24Prog7FlattenEv
   fun:_ZN3re28Compiler6FinishEPNS_6RegexpE
   fun:_ZN3re28Compiler7CompileEPNS_6RegexpEbl
   fun:_ZN3re26Regexp13CompileToProgEl
   fun:_ZN3re23RE24InitERKNS_11StringPieceERKNS0_7OptionsE
   fun:_ZN3re23RE2C1ERKNS_11StringPieceERKNS0_7OptionsE
   fun:_ZSt11make_uniqueIN3re23RE2EJRKNSt7__cxx1112basic_stringIcSt11char_traitsIcESaIcEEERNS1_7OptionsEEENSt9_MakeUniqIT_E15__single_objectEDpOT0_
}
{
   <insert_a_suppression_name_here>
   Memcheck:Cond
   fun:_ZNK3re211SparseArrayIiE9has_indexEi
   fun:_ZN3re24Prog13MarkDominatorEiPNS_11SparseArrayIiEES3_PSt6vectorIS4_IiSaIiEESaIS6_EEPNS_10SparseSetTIvEEPS6_
   fun:_ZN3re24Prog7FlattenEv
   fun:_ZN3re28Compiler6FinishEPNS_6RegexpE
   fun:_ZN3re28Compiler7CompileEPNS_6RegexpEbl
   fun:_ZN3re26Regexp13CompileToProgEl
   fun:_ZN3re23RE24InitERKNS_11StringPieceERKNS0_7OptionsE
   fun:_ZN3re23RE2C1ERKNS_11StringPieceERKNS0_7OptionsE
   fun:_ZSt11make_uniqueIN3re23RE2EJRKNSt7__cxx1112basic_stringIcSt11char_traitsIcESaIcEEERNS1_7OptionsEEENSt9_MakeUniqIT_E15__single_objectEDpOT0_
   fun:_ZN5ddwaf14operation11regex_matchC1ERKNSt7__cxx1112basic_stringIcSt11char_traitsIcESaIcEEEmb
   fun:_ZSt11make_uniqueIN5ddwaf14operation11regex_matchEJRNSt7__cxx1112basic_stringIcSt11char_traitsIcESaIcEEERiRbEENSt9_MakeUniqIT_E15__single_objectEDpOT0_
   fun:_ZN5ddwaf6parser2v212_GLOBAL__N_114parseConditionERSt13unordered_mapISt17basic_string_viewIcSt11char_traitsIcEENS_9parameterESt4hashIS7_ESt8equal_toIS7_ESaISt4pairIKS7_S8_EEERNS_16manifest_builderENS_9condition11data_sourceERSt6vectorI15PW_TRANSFORM_IDSaISO_EERNS_6configE
}
{
   <insert_a_suppression_name_here>
   Memcheck:Value8
   fun:_ZNK3re211SparseArrayIiE9has_indexEi
   fun:_ZN3re24Prog13MarkDominatorEiPNS_11SparseArrayIiEES3_PSt6vectorIS4_IiSaIiEESaIS6_EEPNS_10SparseSetTIvEEPS6_
   fun:_ZN3re24Prog7FlattenEv
   fun:_ZN3re28Compiler6FinishEPNS_6RegexpE
   fun:_ZN3re28Compiler7CompileEPNS_6RegexpEbl
   fun:_ZN3re26Regexp13CompileToProgEl
   fun:_ZN3re23RE24InitERKNS_11StringPieceERKNS0_7OptionsE
   fun:_ZN3re23RE2C1ERKNS_11StringPieceERKNS0_7OptionsE
   fun:_ZSt11make_uniqueIN3re23RE2EJRKNSt7__cxx1112basic_stringIcSt11char_traitsIcESaIcEEERNS1_7OptionsEEENSt9_MakeUniqIT_E15__single_objectEDpOT0_
   fun:_ZN5ddwaf14operation11regex_matchC1ERKNSt7__cxx1112basic_stringIcSt11char_traitsIcESaIcEEEmb
   fun:_ZSt11make_uniqueIN5ddwaf14operation11regex_matchEJRNSt7__cxx1112basic_stringIcSt11char_traitsIcESaIcEEERiRbEENSt9_MakeUniqIT_E15__single_objectEDpOT0_
   fun:_ZN5ddwaf6parser2v212_GLOBAL__N_114parseConditionERSt13unordered_mapISt17basic_string_viewIcSt11char_traitsIcEENS_9parameterESt4hashIS7_ESt8equal_toIS7_ESaISt4pairIKS7_S8_EEERNS_16manifest_builderENS_9condition11data_sourceERSt6vectorI15PW_TRANSFORM_IDSaISO_EERNS_6configE
}
{
   <insert_a_suppression_name_here>
   Memcheck:Cond
   fun:_ZNK3re210SparseSetTIvE8containsEi
   fun:_ZN3re24Prog8EmitListEiPNS_11SparseArrayIiEEPSt6vectorINS0_4InstESaIS5_EEPNS_10SparseSetTIvEEPS4_IiSaIiEE
   fun:_ZN3re24Prog7FlattenEv
   fun:_ZN3re28Compiler6FinishEPNS_6RegexpE
   fun:_ZN3re28Compiler7CompileEPNS_6RegexpEbl
   fun:_ZN3re26Regexp13CompileToProgEl
   fun:_ZN3re23RE24InitERKNS_11StringPieceERKNS0_7OptionsE
   fun:_ZN3re23RE2C1ERKNS_11StringPieceERKNS0_7OptionsE
   fun:_ZSt11make_uniqueIN3re23RE2EJRKNSt7__cxx1112basic_stringIcSt11char_traitsIcESaIcEEERNS1_7OptionsEEENSt9_MakeUniqIT_E15__single_objectEDpOT0_
   fun:_ZN5ddwaf14operation11regex_matchC1ERKNSt7__cxx1112basic_stringIcSt11char_traitsIcESaIcEEEmb
   fun:_ZSt11make_uniqueIN5ddwaf14operation11regex_matchEJRNSt7__cxx1112basic_stringIcSt11char_traitsIcESaIcEEERiRbEENSt9_MakeUniqIT_E15__single_objectEDpOT0_
   fun:_ZN5ddwaf6parser2v212_GLOBAL__N_114parseConditionERSt13unordered_mapISt17basic_string_viewIcSt11char_traitsIcEENS_9parameterESt4hashIS7_ESt8equal_toIS7_ESaISt4pairIKS7_S8_EEERNS_16manifest_builderENS_9condition11data_sourceERSt6vectorI15PW_TRANSFORM_IDSaISO_EERNS_6configE
}
{
   <insert_a_suppression_name_here>
   Memcheck:Cond
   fun:_ZNK3re210SparseSetTIvE8containsEi
   fun:_ZN3re210SparseSetTIvE14InsertInternalEbi
   fun:_ZN3re210SparseSetTIvE10insert_newEi
   fun:_ZN3re24Prog8EmitListEiPNS_11SparseArrayIiEEPSt6vectorINS0_4InstESaIS5_EEPNS_10SparseSetTIvEEPS4_IiSaIiEE
   fun:_ZN3re24Prog7FlattenEv
   fun:_ZN3re28Compiler6FinishEPNS_6RegexpE
   fun:_ZN3re28Compiler7CompileEPNS_6RegexpEbl
   fun:_ZN3re26Regexp13CompileToProgEl
   fun:_ZN3re23RE24InitERKNS_11StringPieceERKNS0_7OptionsE
   fun:_ZN3re23RE2C1ERKNS_11StringPieceERKNS0_7OptionsE
   fun:_ZSt11make_uniqueIN3re23RE2EJRKNSt7__cxx1112basic_stringIcSt11char_traitsIcESaIcEEERNS1_7OptionsEEENSt9_MakeUniqIT_E15__single_objectEDpOT0_
   fun:_ZN5ddwaf14operation11regex_matchC1ERKNSt7__cxx1112basic_stringIcSt11char_traitsIcESaIcEEEmb
}
{
   <insert_a_suppression_name_here>
   Memcheck:Cond
   fun:_ZNK3re211SparseArrayIiE9has_indexEi
   fun:_ZN3re24Prog8EmitListEiPNS_11SparseArrayIiEEPSt6vectorINS0_4InstESaIS5_EEPNS_10SparseSetTIvEEPS4_IiSaIiEE
   fun:_ZN3re24Prog7FlattenEv
   fun:_ZN3re28Compiler6FinishEPNS_6RegexpE
   fun:_ZN3re28Compiler7CompileEPNS_6RegexpEbl
   fun:_ZN3re26Regexp13CompileToProgEl
   fun:_ZN3re23RE24InitERKNS_11StringPieceERKNS0_7OptionsE
   fun:_ZN3re23RE2C1ERKNS_11StringPieceERKNS0_7OptionsE
   fun:_ZSt11make_uniqueIN3re23RE2EJRKNSt7__cxx1112basic_stringIcSt11char_traitsIcESaIcEEERNS1_7OptionsEEENSt9_MakeUniqIT_E15__single_objectEDpOT0_
   fun:_ZN5ddwaf14operation11regex_matchC1ERKNSt7__cxx1112basic_stringIcSt11char_traitsIcESaIcEEEmb
   fun:_ZSt11make_uniqueIN5ddwaf14operation11regex_matchEJRNSt7__cxx1112basic_stringIcSt11char_traitsIcESaIcEEERiRbEENSt9_MakeUniqIT_E15__single_objectEDpOT0_
   fun:_ZN5ddwaf6parser2v212_GLOBAL__N_114parseConditionERSt13unordered_mapISt17basic_string_viewIcSt11char_traitsIcEENS_9parameterESt4hashIS7_ESt8equal_toIS7_ESaISt4pairIKS7_S8_EEERNS_16manifest_builderENS_9condition11data_sourceERSt6vectorI15PW_TRANSFORM_IDSaISO_EERNS_6configE
}
{
   <insert_a_suppression_name_here>
   Memcheck:Value8
   fun:_ZNK3re211SparseArrayIiE9has_indexEi
   fun:_ZN3re24Prog8EmitListEiPNS_11SparseArrayIiEEPSt6vectorINS0_4InstESaIS5_EEPNS_10SparseSetTIvEEPS4_IiSaIiEE
   fun:_ZN3re24Prog7FlattenEv
   fun:_ZN3re28Compiler6FinishEPNS_6RegexpE
   fun:_ZN3re28Compiler7CompileEPNS_6RegexpEbl
   fun:_ZN3re26Regexp13CompileToProgEl
   fun:_ZN3re23RE24InitERKNS_11StringPieceERKNS0_7OptionsE
   fun:_ZN3re23RE2C1ERKNS_11StringPieceERKNS0_7OptionsE
   fun:_ZSt11make_uniqueIN3re23RE2EJRKNSt7__cxx1112basic_stringIcSt11char_traitsIcESaIcEEERNS1_7OptionsEEENSt9_MakeUniqIT_E15__single_objectEDpOT0_
   fun:_ZN5ddwaf14operation11regex_matchC1ERKNSt7__cxx1112basic_stringIcSt11char_traitsIcESaIcEEEmb
   fun:_ZSt11make_uniqueIN5ddwaf14operation11regex_matchEJRNSt7__cxx1112basic_stringIcSt11char_traitsIcESaIcEEERiRbEENSt9_MakeUniqIT_E15__single_objectEDpOT0_
   fun:_ZN5ddwaf6parser2v212_GLOBAL__N_114parseConditionERSt13unordered_mapISt17basic_string_viewIcSt11char_traitsIcEENS_9parameterESt4hashIS7_ESt8equal_toIS7_ESaISt4pairIKS7_S8_EEERNS_16manifest_builderENS_9condition11data_sourceERSt6vectorI15PW_TRANSFORM_IDSaISO_EERNS_6configE
}
{
   <insert_a_suppression_name_here>
   Memcheck:Cond
   fun:_ZNK3re210SparseSetTIvE8containsEi
   fun:_ZN3re2L4AddQEPNS_10SparseSetTIvEEi
   fun:_ZN3re24Prog9IsOnePassEv
   fun:_ZN3re23RE24InitERKNS_11StringPieceERKNS0_7OptionsE
   fun:_ZN3re23RE2C1ERKNS_11StringPieceERKNS0_7OptionsE
   fun:_ZSt11make_uniqueIN3re23RE2EJRKNSt7__cxx1112basic_stringIcSt11char_traitsIcESaIcEEERNS1_7OptionsEEENSt9_MakeUniqIT_E15__single_objectEDpOT0_
   fun:_ZN5ddwaf14operation11regex_matchC1ERKNSt7__cxx1112basic_stringIcSt11char_traitsIcESaIcEEEmb
   fun:_ZSt11make_uniqueIN5ddwaf14operation11regex_matchEJRNSt7__cxx1112basic_stringIcSt11char_traitsIcESaIcEEERiRbEENSt9_MakeUniqIT_E15__single_objectEDpOT0_
   fun:_ZN5ddwaf6parser2v212_GLOBAL__N_114parseConditionERSt13unordered_mapISt17basic_string_viewIcSt11char_traitsIcEENS_9parameterESt4hashIS7_ESt8equal_toIS7_ESaISt4pairIKS7_S8_EEERNS_16manifest_builderENS_9condition11data_sourceERSt6vectorI15PW_TRANSFORM_IDSaISO_EERNS_6configE
   fun:_ZN5ddwaf6parser2v212_GLOBAL__N_19parseRuleERSt13unordered_mapISt17basic_string_viewIcSt11char_traitsIcEENS_9parameterESt4hashIS7_ESt8equal_toIS7_ESaISt4pairIKS7_S8_EEERNS_12ruleset_infoERNS_16manifest_builderERNS_7rulesetERSt3setIS7_St4lessIS7_ESaIS7_EERNS_6configE
   fun:_ZN5ddwaf6parser2v25parseERSt13unordered_mapISt17basic_string_viewIcSt11char_traitsIcEENS_9parameterESt4hashIS6_ESt8equal_toIS6_ESaISt4pairIKS6_S7_EEERNS_12ruleset_infoERNS_7rulesetERNS_6configE
   fun:_ZN5ddwaf6parser5parseENS_9parameterERNS_12ruleset_infoERNS_7rulesetERNS_6configE
}
{
   <insert_a_suppression_name_here>
   Memcheck:Cond
   fun:_ZNK3re210SparseSetTIvE8containsEi
   fun:_ZN3re210SparseSetTIvE14InsertInternalEbi
   fun:_ZN3re210SparseSetTIvE6insertEi
   fun:_ZN3re2L4AddQEPNS_10SparseSetTIvEEi
   fun:_ZN3re24Prog9IsOnePassEv
   fun:_ZN3re23RE24InitERKNS_11StringPieceERKNS0_7OptionsE
   fun:_ZN3re23RE2C1ERKNS_11StringPieceERKNS0_7OptionsE
   fun:_ZSt11make_uniqueIN3re23RE2EJRKNSt7__cxx1112basic_stringIcSt11char_traitsIcESaIcEEERNS1_7OptionsEEENSt9_MakeUniqIT_E15__single_objectEDpOT0_
   fun:_ZN5ddwaf14operation11regex_matchC1ERKNSt7__cxx1112basic_stringIcSt11char_traitsIcESaIcEEEmb
   fun:_ZSt11make_uniqueIN5ddwaf14operation11regex_matchEJRNSt7__cxx1112basic_stringIcSt11char_traitsIcESaIcEEERiRbEENSt9_MakeUniqIT_E15__single_objectEDpOT0_
   fun:_ZN5ddwaf6parser2v212_GLOBAL__N_114parseConditionERSt13unordered_mapISt17basic_string_viewIcSt11char_traitsIcEENS_9parameterESt4hashIS7_ESt8equal_toIS7_ESaISt4pairIKS7_S8_EEERNS_16manifest_builderENS_9condition11data_sourceERSt6vectorI15PW_TRANSFORM_IDSaISO_EERNS_6configE
   fun:_ZN5ddwaf6parser2v212_GLOBAL__N_19parseRuleERSt13unordered_mapISt17basic_string_viewIcSt11char_traitsIcEENS_9parameterESt4hashIS7_ESt8equal_toIS7_ESaISt4pairIKS7_S8_EEERNS_12ruleset_infoERNS_16manifest_builderERNS_7rulesetERSt3setIS7_St4lessIS7_ESaIS7_EERNS_6configE
}
{
   <insert_a_suppression_name_here>
   Memcheck:Value8
   fun:_ZNK3re210SparseSetTIvE8containsEi
   fun:_ZN3re2L4AddQEPNS_10SparseSetTIvEEi
   fun:_ZN3re24Prog9IsOnePassEv
   fun:_ZN3re23RE24InitERKNS_11StringPieceERKNS0_7OptionsE
   fun:_ZN3re23RE2C1ERKNS_11StringPieceERKNS0_7OptionsE
   fun:_ZSt11make_uniqueIN3re23RE2EJRKNSt7__cxx1112basic_stringIcSt11char_traitsIcESaIcEEERNS1_7OptionsEEENSt9_MakeUniqIT_E15__single_objectEDpOT0_
   fun:_ZN5ddwaf14operation11regex_matchC1ERKNSt7__cxx1112basic_stringIcSt11char_traitsIcESaIcEEEmb
   fun:_ZSt11make_uniqueIN5ddwaf14operation11regex_matchEJRNSt7__cxx1112basic_stringIcSt11char_traitsIcESaIcEEERiRbEENSt9_MakeUniqIT_E15__single_objectEDpOT0_
   fun:_ZN5ddwaf6parser2v212_GLOBAL__N_114parseConditionERSt13unordered_mapISt17basic_string_viewIcSt11char_traitsIcEENS_9parameterESt4hashIS7_ESt8equal_toIS7_ESaISt4pairIKS7_S8_EEERNS_16manifest_builderENS_9condition11data_sourceERSt6vectorI15PW_TRANSFORM_IDSaISO_EERNS_6configE
   fun:_ZN5ddwaf6parser2v212_GLOBAL__N_19parseRuleERSt13unordered_mapISt17basic_string_viewIcSt11char_traitsIcEENS_9parameterESt4hashIS7_ESt8equal_toIS7_ESaISt4pairIKS7_S8_EEERNS_12ruleset_infoERNS_16manifest_builderERNS_7rulesetERSt3setIS7_St4lessIS7_ESaIS7_EERNS_6configE
   fun:_ZN5ddwaf6parser2v25parseERSt13unordered_mapISt17basic_string_viewIcSt11char_traitsIcEENS_9parameterESt4hashIS6_ESt8equal_toIS6_ESaISt4pairIKS6_S7_EEERNS_12ruleset_infoERNS_7rulesetERNS_6configE
   fun:_ZN5ddwaf6parser5parseENS_9parameterERNS_12ruleset_infoERNS_7rulesetERNS_6configE
}
{
   <insert_a_suppression_name_here>
   Memcheck:Value8
   fun:_ZNK3re210SparseSetTIvE8containsEi
   fun:_ZN3re210SparseSetTIvE14InsertInternalEbi
   fun:_ZN3re210SparseSetTIvE6insertEi
   fun:_ZN3re2L4AddQEPNS_10SparseSetTIvEEi
   fun:_ZN3re24Prog9IsOnePassEv
   fun:_ZN3re23RE24InitERKNS_11StringPieceERKNS0_7OptionsE
   fun:_ZN3re23RE2C1ERKNS_11StringPieceERKNS0_7OptionsE
   fun:_ZSt11make_uniqueIN3re23RE2EJRKNSt7__cxx1112basic_stringIcSt11char_traitsIcESaIcEEERNS1_7OptionsEEENSt9_MakeUniqIT_E15__single_objectEDpOT0_
   fun:_ZN5ddwaf14operation11regex_matchC1ERKNSt7__cxx1112basic_stringIcSt11char_traitsIcESaIcEEEmb
   fun:_ZSt11make_uniqueIN5ddwaf14operation11regex_matchEJRNSt7__cxx1112basic_stringIcSt11char_traitsIcESaIcEEERiRbEENSt9_MakeUniqIT_E15__single_objectEDpOT0_
   fun:_ZN5ddwaf6parser2v212_GLOBAL__N_114parseConditionERSt13unordered_mapISt17basic_string_viewIcSt11char_traitsIcEENS_9parameterESt4hashIS7_ESt8equal_toIS7_ESaISt4pairIKS7_S8_EEERNS_16manifest_builderENS_9condition11data_sourceERSt6vectorI15PW_TRANSFORM_IDSaISO_EERNS_6configE
   fun:_ZN5ddwaf6parser2v212_GLOBAL__N_19parseRuleERSt13unordered_mapISt17basic_string_viewIcSt11char_traitsIcEENS_9parameterESt4hashIS7_ESt8equal_toIS7_ESaISt4pairIKS7_S8_EEERNS_12ruleset_infoERNS_16manifest_builderERNS_7rulesetERSt3setIS7_St4lessIS7_ESaIS7_EERNS_6configE
}
{
   <insert_a_suppression_name_here>
   Memcheck:Cond
   fun:_ZNK3re210SparseSetTIvE8containsEi
   fun:_ZN3re23DFA10AddToQueueEPNS0_5WorkqEij
   fun:_ZN3re23DFA19AnalyzeSearchHelperEPNS0_12SearchParamsEPNS0_9StartInfoEj
   fun:_ZN3re23DFA13AnalyzeSearchEPNS0_12SearchParamsE
   fun:_ZN3re23DFA6SearchERKNS_11StringPieceES3_bbbPbPPKcPNS_10SparseSetTIvEE
   fun:_ZN3re24Prog9SearchDFAERKNS_11StringPieceES3_NS0_6AnchorENS0_9MatchKindEPS1_PbPNS_10SparseSetTIvEE
   fun:_ZNK3re23RE25MatchERKNS_11StringPieceEmmNS0_6AnchorEPS1_i
   fun:_ZNK5ddwaf14operation11regex_match5matchEPKcmR13MatchGatherer
   fun:_ZNK5ddwaf9condition12match_objectEPK13_ddwaf_objectR13MatchGatherer
   fun:_ZNK5ddwaf9condition12match_targetINS_6object14value_iteratorEEENS0_6statusERT_RKNSt7__cxx1112basic_stringIcSt11char_traitsIcESaIcEEERNS_5timerER12PWRetManager
   fun:_ZNK5ddwaf9condition5matchERKNS_12object_storeERKNS_8manifestEbRNS_5timerER12PWRetManager
   fun:_ZN5ddwaf7context14run_collectionERKNSt7__cxx1112basic_stringIcSt11char_traitsIcESaIcEEERKSt6vectorISt17reference_wrapperINS_4ruleEESaISC_EER12PWRetManagerRNS_5timerE
}
{
   <insert_a_suppression_name_here>
   Memcheck:Cond
   fun:_ZNK3re210SparseSetTIvE8containsEi
   fun:_ZN3re210SparseSetTIvE14InsertInternalEbi
   fun:_ZN3re210SparseSetTIvE10insert_newEi
   fun:_ZN3re23DFA5Workq10insert_newEi
   fun:_ZN3re23DFA10AddToQueueEPNS0_5WorkqEij
   fun:_ZN3re23DFA19AnalyzeSearchHelperEPNS0_12SearchParamsEPNS0_9StartInfoEj
   fun:_ZN3re23DFA13AnalyzeSearchEPNS0_12SearchParamsE
   fun:_ZN3re23DFA6SearchERKNS_11StringPieceES3_bbbPbPPKcPNS_10SparseSetTIvEE
   fun:_ZN3re24Prog9SearchDFAERKNS_11StringPieceES3_NS0_6AnchorENS0_9MatchKindEPS1_PbPNS_10SparseSetTIvEE
   fun:_ZNK3re23RE25MatchERKNS_11StringPieceEmmNS0_6AnchorEPS1_i
   fun:_ZNK5ddwaf14operation11regex_match5matchEPKcmR13MatchGatherer
   fun:_ZNK5ddwaf9condition12match_objectEPK13_ddwaf_objectR13MatchGatherer
}
{
   <insert_a_suppression_name_here>
   Memcheck:Value8
   fun:_ZNK3re210SparseSetTIvE8containsEi
   fun:_ZN3re23DFA10AddToQueueEPNS0_5WorkqEij
   fun:_ZN3re23DFA19AnalyzeSearchHelperEPNS0_12SearchParamsEPNS0_9StartInfoEj
   fun:_ZN3re23DFA13AnalyzeSearchEPNS0_12SearchParamsE
   fun:_ZN3re23DFA6SearchERKNS_11StringPieceES3_bbbPbPPKcPNS_10SparseSetTIvEE
   fun:_ZN3re24Prog9SearchDFAERKNS_11StringPieceES3_NS0_6AnchorENS0_9MatchKindEPS1_PbPNS_10SparseSetTIvEE
   fun:_ZNK3re23RE25MatchERKNS_11StringPieceEmmNS0_6AnchorEPS1_i
   fun:_ZNK5ddwaf14operation11regex_match5matchEPKcmR13MatchGatherer
   fun:_ZNK5ddwaf9condition12match_objectEPK13_ddwaf_objectR13MatchGatherer
   fun:_ZNK5ddwaf9condition12match_targetINS_6object14value_iteratorEEENS0_6statusERT_RKNSt7__cxx1112basic_stringIcSt11char_traitsIcESaIcEEERNS_5timerER12PWRetManager
   fun:_ZNK5ddwaf9condition5matchERKNS_12object_storeERKNS_8manifestEbRNS_5timerER12PWRetManager
   fun:_ZN5ddwaf7context14run_collectionERKNSt7__cxx1112basic_stringIcSt11char_traitsIcESaIcEEERKSt6vectorISt17reference_wrapperINS_4ruleEESaISC_EER12PWRetManagerRNS_5timerE
}
{
   <insert_a_suppression_name_here>
   Memcheck:Value8
   fun:_ZNK3re210SparseSetTIvE8containsEi
   fun:_ZN3re210SparseSetTIvE14InsertInternalEbi
   fun:_ZN3re210SparseSetTIvE10insert_newEi
   fun:_ZN3re23DFA5Workq10insert_newEi
   fun:_ZN3re23DFA10AddToQueueEPNS0_5WorkqEij
   fun:_ZN3re23DFA19AnalyzeSearchHelperEPNS0_12SearchParamsEPNS0_9StartInfoEj
   fun:_ZN3re23DFA13AnalyzeSearchEPNS0_12SearchParamsE
   fun:_ZN3re23DFA6SearchERKNS_11StringPieceES3_bbbPbPPKcPNS_10SparseSetTIvEE
   fun:_ZN3re24Prog9SearchDFAERKNS_11StringPieceES3_NS0_6AnchorENS0_9MatchKindEPS1_PbPNS_10SparseSetTIvEE
   fun:_ZNK3re23RE25MatchERKNS_11StringPieceEmmNS0_6AnchorEPS1_i
   fun:_ZNK5ddwaf14operation11regex_match5matchEPKcmR13MatchGatherer
   fun:_ZNK5ddwaf9condition12match_objectEPK13_ddwaf_objectR13MatchGatherer
}
{
   <insert_a_suppression_name_here>
   Memcheck:Cond
   fun:_ZNK3re210SparseSetTIvE8containsEi
   fun:_ZN3re23DFA10AddToQueueEPNS0_5WorkqEij
   fun:_ZN3re23DFA14RunWorkqOnByteEPNS0_5WorkqES2_ijPb
   fun:_ZN3re23DFA14RunStateOnByteEPNS0_5StateEi
   fun:_ZN3re23DFA22RunStateOnByteUnlockedEPNS0_5StateEi
   fun:_ZN3re23DFA17InlinedSearchLoopILb0ELb0ELb1EEEbPNS0_12SearchParamsE
   fun:_ZN3re23DFA9SearchFFTEPNS0_12SearchParamsE
   fun:_ZN3re23DFA14FastSearchLoopEPNS0_12SearchParamsE
   fun:_ZN3re23DFA6SearchERKNS_11StringPieceES3_bbbPbPPKcPNS_10SparseSetTIvEE
   fun:_ZN3re24Prog9SearchDFAERKNS_11StringPieceES3_NS0_6AnchorENS0_9MatchKindEPS1_PbPNS_10SparseSetTIvEE
   fun:_ZNK3re23RE25MatchERKNS_11StringPieceEmmNS0_6AnchorEPS1_i
   fun:_ZNK5ddwaf14operation11regex_match5matchEPKcmR13MatchGatherer
}
{
   <insert_a_suppression_name_here>
   Memcheck:Value8
   fun:_ZNK3re210SparseSetTIvE8containsEi
   fun:_ZN3re23DFA10AddToQueueEPNS0_5WorkqEij
   fun:_ZN3re23DFA14RunWorkqOnByteEPNS0_5WorkqES2_ijPb
   fun:_ZN3re23DFA14RunStateOnByteEPNS0_5StateEi
   fun:_ZN3re23DFA22RunStateOnByteUnlockedEPNS0_5StateEi
   fun:_ZN3re23DFA17InlinedSearchLoopILb0ELb0ELb1EEEbPNS0_12SearchParamsE
   fun:_ZN3re23DFA9SearchFFTEPNS0_12SearchParamsE
   fun:_ZN3re23DFA14FastSearchLoopEPNS0_12SearchParamsE
   fun:_ZN3re23DFA6SearchERKNS_11StringPieceES3_bbbPbPPKcPNS_10SparseSetTIvEE
   fun:_ZN3re24Prog9SearchDFAERKNS_11StringPieceES3_NS0_6AnchorENS0_9MatchKindEPS1_PbPNS_10SparseSetTIvEE
   fun:_ZNK3re23RE25MatchERKNS_11StringPieceEmmNS0_6AnchorEPS1_i
   fun:_ZNK5ddwaf14operation11regex_match5matchEPKcmR13MatchGatherer
}
{
   <insert_a_suppression_name_here>
   Memcheck:Cond
   fun:_ZNK3re211SparseArrayIiE9has_indexEi
   fun:_ZN3re24Prog13MarkDominatorEiPNS_11SparseArrayIiEES3_PSt6vectorIS4_IiSaIiEESaIS6_EEPNS_10SparseSetTIvEEPS6_
   fun:_ZN3re24Prog7FlattenEv
   fun:_ZN3re28Compiler6FinishEPNS_6RegexpE
   fun:_ZN3re28Compiler7CompileEPNS_6RegexpEbl
   fun:_ZN3re26Regexp20CompileToReverseProgEl
   fun:_ZZNK3re23RE211ReverseProgEvENKUlPKS0_E_clES2_
   fun:_ZSt13__invoke_implIvZNK3re23RE211ReverseProgEvEUlPKS1_E_JS3_EET_St14__invoke_otherOT0_DpOT1_
   fun:_ZSt8__invokeIZNK3re23RE211ReverseProgEvEUlPKS1_E_JS3_EENSt15__invoke_resultIT_JDpT0_EE4typeEOS6_DpOS7_
   fun:_ZZSt9call_onceIZNK3re23RE211ReverseProgEvEUlPKS1_E_JS3_EEvRSt9once_flagOT_DpOT0_ENKUlvE_clEv
   fun:_ZZSt9call_onceIZNK3re23RE211ReverseProgEvEUlPKS1_E_JS3_EEvRSt9once_flagOT_DpOT0_ENKUlvE0_clEv
   fun:_ZZSt9call_onceIZNK3re23RE211ReverseProgEvEUlPKS1_E_JS3_EEvRSt9once_flagOT_DpOT0_ENUlvE0_4_FUNEv
}
{
   <insert_a_suppression_name_here>
   Memcheck:Value8
   fun:_ZNK3re211SparseArrayIiE9has_indexEi
   fun:_ZN3re24Prog13MarkDominatorEiPNS_11SparseArrayIiEES3_PSt6vectorIS4_IiSaIiEESaIS6_EEPNS_10SparseSetTIvEEPS6_
   fun:_ZN3re24Prog7FlattenEv
   fun:_ZN3re28Compiler6FinishEPNS_6RegexpE
   fun:_ZN3re28Compiler7CompileEPNS_6RegexpEbl
   fun:_ZN3re26Regexp20CompileToReverseProgEl
   fun:_ZZNK3re23RE211ReverseProgEvENKUlPKS0_E_clES2_
   fun:_ZSt13__invoke_implIvZNK3re23RE211ReverseProgEvEUlPKS1_E_JS3_EET_St14__invoke_otherOT0_DpOT1_
   fun:_ZSt8__invokeIZNK3re23RE211ReverseProgEvEUlPKS1_E_JS3_EENSt15__invoke_resultIT_JDpT0_EE4typeEOS6_DpOS7_
   fun:_ZZSt9call_onceIZNK3re23RE211ReverseProgEvEUlPKS1_E_JS3_EEvRSt9once_flagOT_DpOT0_ENKUlvE_clEv
   fun:_ZZSt9call_onceIZNK3re23RE211ReverseProgEvEUlPKS1_E_JS3_EEvRSt9once_flagOT_DpOT0_ENKUlvE0_clEv
   fun:_ZZSt9call_onceIZNK3re23RE211ReverseProgEvEUlPKS1_E_JS3_EEvRSt9once_flagOT_DpOT0_ENUlvE0_4_FUNEv
}
{
   <insert_a_suppression_name_here>
   Memcheck:Cond
   fun:_ZNK3re210SparseSetTIvE8containsEi
   fun:_ZN3re23DFA10AddToQueueEPNS0_5WorkqEij
   fun:_ZN3re23DFA12StateToWorkqEPNS0_5StateEPNS0_5WorkqE
   fun:_ZN3re23DFA14RunStateOnByteEPNS0_5StateEi
   fun:_ZN3re23DFA22RunStateOnByteUnlockedEPNS0_5StateEi
   fun:_ZN3re23DFA17InlinedSearchLoopILb1ELb0ELb1EEEbPNS0_12SearchParamsE
   fun:_ZN3re23DFA9SearchTFTEPNS0_12SearchParamsE
   fun:_ZN3re23DFA14FastSearchLoopEPNS0_12SearchParamsE
   fun:_ZN3re23DFA6SearchERKNS_11StringPieceES3_bbbPbPPKcPNS_10SparseSetTIvEE
   fun:_ZN3re24Prog9SearchDFAERKNS_11StringPieceES3_NS0_6AnchorENS0_9MatchKindEPS1_PbPNS_10SparseSetTIvEE
   fun:_ZNK3re23RE25MatchERKNS_11StringPieceEmmNS0_6AnchorEPS1_i
   fun:_ZNK5ddwaf14operation11regex_match5matchEPKcmR13MatchGatherer
}
{
   <insert_a_suppression_name_here>
   Memcheck:Value8
   fun:_ZNK3re210SparseSetTIvE8containsEi
   fun:_ZN3re23DFA10AddToQueueEPNS0_5WorkqEij
   fun:_ZN3re23DFA12StateToWorkqEPNS0_5StateEPNS0_5WorkqE
   fun:_ZN3re23DFA14RunStateOnByteEPNS0_5StateEi
   fun:_ZN3re23DFA22RunStateOnByteUnlockedEPNS0_5StateEi
   fun:_ZN3re23DFA17InlinedSearchLoopILb1ELb0ELb1EEEbPNS0_12SearchParamsE
   fun:_ZN3re23DFA9SearchTFTEPNS0_12SearchParamsE
   fun:_ZN3re23DFA14FastSearchLoopEPNS0_12SearchParamsE
   fun:_ZN3re23DFA6SearchERKNS_11StringPieceES3_bbbPbPPKcPNS_10SparseSetTIvEE
   fun:_ZN3re24Prog9SearchDFAERKNS_11StringPieceES3_NS0_6AnchorENS0_9MatchKindEPS1_PbPNS_10SparseSetTIvEE
   fun:_ZNK3re23RE25MatchERKNS_11StringPieceEmmNS0_6AnchorEPS1_i
   fun:_ZNK5ddwaf14operation11regex_match5matchEPKcmR13MatchGatherer
}
{
   <insert_a_suppression_name_here>
   Memcheck:Cond
   fun:_ZNK3re211SparseArrayIiE9has_indexEi
   fun:_ZN3re211SparseArrayIiE11SetInternalEbiRKi
   fun:_ZN3re211SparseArrayIiE7set_newEiRKi
   fun:_ZN3re24Prog13MarkDominatorEiPNS_11SparseArrayIiEES3_PSt6vectorIS4_IiSaIiEESaIS6_EEPNS_10SparseSetTIvEEPS6_
   fun:_ZN3re24Prog7FlattenEv
   fun:_ZN3re28Compiler6FinishEPNS_6RegexpE
   fun:_ZN3re28Compiler7CompileEPNS_6RegexpEbl
   fun:_ZN3re26Regexp13CompileToProgEl
   fun:_ZN3re23RE24InitERKNS_11StringPieceERKNS0_7OptionsE
   fun:_ZN3re23RE2C1ERKNS_11StringPieceERKNS0_7OptionsE
   fun:_ZSt11make_uniqueIN3re23RE2EJRKNSt7__cxx1112basic_stringIcSt11char_traitsIcESaIcEEERNS1_7OptionsEEENSt9_MakeUniqIT_E15__single_objectEDpOT0_
   fun:_ZN5ddwaf14operation11regex_matchC1ERKNSt7__cxx1112basic_stringIcSt11char_traitsIcESaIcEEEmb
}
{
   <insert_a_suppression_name_here>
   Memcheck:Value8
   fun:_ZNK3re211SparseArrayIiE9has_indexEi
   fun:_ZN3re211SparseArrayIiE11SetInternalEbiRKi
   fun:_ZN3re211SparseArrayIiE7set_newEiRKi
   fun:_ZN3re24Prog13MarkDominatorEiPNS_11SparseArrayIiEES3_PSt6vectorIS4_IiSaIiEESaIS6_EEPNS_10SparseSetTIvEEPS6_
   fun:_ZN3re24Prog7FlattenEv
   fun:_ZN3re28Compiler6FinishEPNS_6RegexpE
   fun:_ZN3re28Compiler7CompileEPNS_6RegexpEbl
   fun:_ZN3re26Regexp13CompileToProgEl
   fun:_ZN3re23RE24InitERKNS_11StringPieceERKNS0_7OptionsE
   fun:_ZN3re23RE2C1ERKNS_11StringPieceERKNS0_7OptionsE
   fun:_ZSt11make_uniqueIN3re23RE2EJRKNSt7__cxx1112basic_stringIcSt11char_traitsIcESaIcEEERNS1_7OptionsEEENSt9_MakeUniqIT_E15__single_objectEDpOT0_
   fun:_ZN5ddwaf14operation11regex_matchC1ERKNSt7__cxx1112basic_stringIcSt11char_traitsIcESaIcEEEmb
}
{
   <insert_a_suppression_name_here>
   Memcheck:Cond
   fun:_ZNK3re210SparseSetTIvE8containsEi
   fun:_ZN3re210SparseSetTIvE14InsertInternalEbi
   fun:_ZN3re210SparseSetTIvE10insert_newEi
   fun:_ZN3re23DFA5Workq4markEv
   fun:_ZN3re23DFA10AddToQueueEPNS0_5WorkqEij
   fun:_ZN3re23DFA19AnalyzeSearchHelperEPNS0_12SearchParamsEPNS0_9StartInfoEj
   fun:_ZN3re23DFA13AnalyzeSearchEPNS0_12SearchParamsE
   fun:_ZN3re23DFA6SearchERKNS_11StringPieceES3_bbbPbPPKcPNS_10SparseSetTIvEE
   fun:_ZN3re24Prog9SearchDFAERKNS_11StringPieceES3_NS0_6AnchorENS0_9MatchKindEPS1_PbPNS_10SparseSetTIvEE
   fun:_ZNK3re23RE25MatchERKNS_11StringPieceEmmNS0_6AnchorEPS1_i
   fun:_ZN5ddwaf12_GLOBAL__N_15matchERN3re23RE2ESt17basic_string_viewIcSt11char_traitsIcEE
   fun:_ZNK5ddwaf10obfuscator18is_sensitive_valueESt17basic_string_viewIcSt11char_traitsIcEE
}
{
   <insert_a_suppression_name_here>
   Memcheck:Value8
   fun:_ZNK3re210SparseSetTIvE8containsEi
   fun:_ZN3re210SparseSetTIvE14InsertInternalEbi
   fun:_ZN3re210SparseSetTIvE10insert_newEi
   fun:_ZN3re23DFA5Workq4markEv
   fun:_ZN3re23DFA10AddToQueueEPNS0_5WorkqEij
   fun:_ZN3re23DFA19AnalyzeSearchHelperEPNS0_12SearchParamsEPNS0_9StartInfoEj
   fun:_ZN3re23DFA13AnalyzeSearchEPNS0_12SearchParamsE
   fun:_ZN3re23DFA6SearchERKNS_11StringPieceES3_bbbPbPPKcPNS_10SparseSetTIvEE
   fun:_ZN3re24Prog9SearchDFAERKNS_11StringPieceES3_NS0_6AnchorENS0_9MatchKindEPS1_PbPNS_10SparseSetTIvEE
   fun:_ZNK3re23RE25MatchERKNS_11StringPieceEmmNS0_6AnchorEPS1_i
   fun:_ZN5ddwaf12_GLOBAL__N_15matchERN3re23RE2ESt17basic_string_viewIcSt11char_traitsIcEE
   fun:_ZNK5ddwaf10obfuscator18is_sensitive_valueESt17basic_string_viewIcSt11char_traitsIcEE
}
{
   <insert_a_suppression_name_here>
   Memcheck:Leak
   match-leak-kinds: reachable
   fun:_Znwm
   fun:_ZZN3re23RE24InitERKNS_11StringPieceERKNS0_7OptionsEENKUlvE_clEv
   fun:_ZSt13__invoke_implIvZN3re23RE24InitERKNS0_11StringPieceERKNS1_7OptionsEEUlvE_JEET_St14__invoke_otherOT0_DpOT1_
   fun:_ZSt8__invokeIZN3re23RE24InitERKNS0_11StringPieceERKNS1_7OptionsEEUlvE_JEENSt15__invoke_resultIT_JDpT0_EE4typeEOSA_DpOSB_
   fun:_ZZSt9call_onceIZN3re23RE24InitERKNS0_11StringPieceERKNS1_7OptionsEEUlvE_JEEvRSt9once_flagOT_DpOT0_ENKUlvE_clEv
   fun:_ZZSt9call_onceIZN3re23RE24InitERKNS0_11StringPieceERKNS1_7OptionsEEUlvE_JEEvRSt9once_flagOT_DpOT0_ENKUlvE0_clEv
   fun:_ZZSt9call_onceIZN3re23RE24InitERKNS0_11StringPieceERKNS1_7OptionsEEUlvE_JEEvRSt9once_flagOT_DpOT0_ENUlvE0_4_FUNEv
   fun:__pthread_once_slow
   fun:_ZL14__gthread_oncePiPFvvE
   fun:_ZSt9call_onceIZN3re23RE24InitERKNS0_11StringPieceERKNS1_7OptionsEEUlvE_JEEvRSt9once_flagOT_DpOT0_
   fun:_ZN3re23RE24InitERKNS_11StringPieceERKNS0_7OptionsE
   fun:_ZN3re23RE2C1ERKNS_11StringPieceERKNS0_7OptionsE
}
